; ModuleID = '15/1575.c'
source_filename = "15/1575.c"
target datalayout = "e-m:e-p270:32:32-p271:32:32-p272:64:64-i64:64-f80:128-n8:16:32:64-S128"
target triple = "x86_64-pc-linux-gnu"

@.str = private unnamed_addr constant [4 x i8] c"%d\0A\00", align 1
@.str.1 = private unnamed_addr constant [3 x i8] c"%d\00", align 1

; Function Attrs: noinline nounwind uwtable
define dso_local i32 @main() #0 {
  %1 = alloca i32, align 4
  %2 = alloca i32, align 4
  %3 = alloca i32, align 4
  %4 = alloca i32, align 4
  %5 = alloca i32, align 4
  %6 = alloca i32, align 4
  %7 = alloca i32, align 4
  %8 = alloca [100 x [100 x i32]], align 16
  %9 = alloca i32, align 4
  %10 = alloca i32, align 4
  store i32 0, i32* %1, align 4
  %11 = call i32 (i8*, ...) @__isoc99_scanf(i8* getelementptr inbounds ([4 x i8], [4 x i8]* @.str, i64 0, i64 0), i32* %2)
  store i32 0, i32* %9, align 4
  br label %12

12:                                               ; preds = %33, %0
  %13 = load i32, i32* %9, align 4
  %14 = load i32, i32* %2, align 4
  %15 = icmp slt i32 %13, %14
  br i1 %15, label %16, label %36

16:                                               ; preds = %12
  store i32 0, i32* %10, align 4
  br label %17

17:                                               ; preds = %29, %16
  %18 = load i32, i32* %10, align 4
  %19 = load i32, i32* %2, align 4
  %20 = icmp slt i32 %18, %19
  br i1 %20, label %21, label %32

21:                                               ; preds = %17
  %22 = load i32, i32* %9, align 4
  %23 = sext i32 %22 to i64
  %24 = getelementptr inbounds [100 x [100 x i32]], [100 x [100 x i32]]* %8, i64 0, i64 %23
  %25 = load i32, i32* %10, align 4
  %26 = sext i32 %25 to i64
  %27 = getelementptr inbounds [100 x i32], [100 x i32]* %24, i64 0, i64 %26
  %28 = call i32 (i8*, ...) @__isoc99_scanf(i8* getelementptr inbounds ([4 x i8], [4 x i8]* @.str, i64 0, i64 0), i32* %27)
  br label %29

29:                                               ; preds = %21
  %30 = load i32, i32* %10, align 4
  %31 = add nsw i32 %30, 1
  store i32 %31, i32* %10, align 4
  br label %17

32:                                               ; preds = %17
  br label %33

33:                                               ; preds = %32
  %34 = load i32, i32* %9, align 4
  %35 = add nsw i32 %34, 1
  store i32 %35, i32* %9, align 4
  br label %12

36:                                               ; preds = %12
  store i32 0, i32* %9, align 4
  br label %37

37:                                               ; preds = %73, %36
  %38 = load i32, i32* %9, align 4
  %39 = load i32, i32* %2, align 4
  %40 = icmp slt i32 %38, %39
  br i1 %40, label %41, label %76

41:                                               ; preds = %37
  store i32 0, i32* %10, align 4
  br label %42

42:                                               ; preds = %69, %41
  %43 = load i32, i32* %10, align 4
  %44 = load i32, i32* %2, align 4
  %45 = icmp slt i32 %43, %44
  br i1 %45, label %46, label %72

46:                                               ; preds = %42
  %47 = load i32, i32* %9, align 4
  %48 = sext i32 %47 to i64
  %49 = getelementptr inbounds [100 x [100 x i32]], [100 x [100 x i32]]* %8, i64 0, i64 %48
  %50 = load i32, i32* %10, align 4
  %51 = sext i32 %50 to i64
  %52 = getelementptr inbounds [100 x i32], [100 x i32]* %49, i64 0, i64 %51
  %53 = load i32, i32* %52, align 4
  %54 = icmp eq i32 %53, 0
  br i1 %54, label %55, label %68

55:                                               ; preds = %46
  %56 = load i32, i32* %9, align 4
  %57 = sext i32 %56 to i64
  %58 = getelementptr inbounds [100 x [100 x i32]], [100 x [100 x i32]]* %8, i64 0, i64 %57
  %59 = load i32, i32* %10, align 4
  %60 = add nsw i32 %59, 1
  %61 = sext i32 %60 to i64
  %62 = getelementptr inbounds [100 x i32], [100 x i32]* %58, i64 0, i64 %61
  %63 = load i32, i32* %62, align 4
  %64 = icmp eq i32 %63, 255
  br i1 %64, label %65, label %68

65:                                               ; preds = %55
  %66 = load i32, i32* %9, align 4
  store i32 %66, i32* %3, align 4
  %67 = load i32, i32* %10, align 4
  store i32 %67, i32* %4, align 4
  br label %72

68:                                               ; preds = %55, %46
  br label %69

69:                                               ; preds = %68
  %70 = load i32, i32* %10, align 4
  %71 = add nsw i32 %70, 1
  store i32 %71, i32* %10, align 4
  br label %42

72:                                               ; preds = %65, %42
  br label %73

73:                                               ; preds = %72
  %74 = load i32, i32* %9, align 4
  %75 = add nsw i32 %74, 1
  store i32 %75, i32* %9, align 4
  br label %37

76:                                               ; preds = %37
  %77 = load i32, i32* %2, align 4
  %78 = sub nsw i32 %77, 1
  store i32 %78, i32* %9, align 4
  br label %79

79:                                               ; preds = %115, %76
  %80 = load i32, i32* %9, align 4
  %81 = icmp sgt i32 %80, 0
  br i1 %81, label %82, label %118

82:                                               ; preds = %79
  %83 = load i32, i32* %2, align 4
  %84 = sub nsw i32 %83, 1
  store i32 %84, i32* %10, align 4
  br label %85

85:                                               ; preds = %111, %82
  %86 = load i32, i32* %10, align 4
  %87 = icmp sgt i32 %86, 0
  br i1 %87, label %88, label %114

88:                                               ; preds = %85
  %89 = load i32, i32* %9, align 4
  %90 = sext i32 %89 to i64
  %91 = getelementptr inbounds [100 x [100 x i32]], [100 x [100 x i32]]* %8, i64 0, i64 %90
  %92 = load i32, i32* %10, align 4
  %93 = sext i32 %92 to i64
  %94 = getelementptr inbounds [100 x i32], [100 x i32]* %91, i64 0, i64 %93
  %95 = load i32, i32* %94, align 4
  %96 = icmp eq i32 %95, 0
  br i1 %96, label %97, label %110

97:                                               ; preds = %88
  %98 = load i32, i32* %9, align 4
  %99 = sext i32 %98 to i64
  %100 = getelementptr inbounds [100 x [100 x i32]], [100 x [100 x i32]]* %8, i64 0, i64 %99
  %101 = load i32, i32* %10, align 4
  %102 = sub nsw i32 %101, 1
  %103 = sext i32 %102 to i64
  %104 = getelementptr inbounds [100 x i32], [100 x i32]* %100, i64 0, i64 %103
  %105 = load i32, i32* %104, align 4
  %106 = icmp eq i32 %105, 255
  br i1 %106, label %107, label %110

107:                                              ; preds = %97
  %108 = load i32, i32* %9, align 4
  store i32 %108, i32* %5, align 4
  %109 = load i32, i32* %10, align 4
  store i32 %109, i32* %6, align 4
  br label %114

110:                                              ; preds = %97, %88
  br label %111

111:                                              ; preds = %110
  %112 = load i32, i32* %10, align 4
  %113 = add nsw i32 %112, -1
  store i32 %113, i32* %10, align 4
  br label %85

114:                                              ; preds = %107, %85
  br label %115

115:                                              ; preds = %114
  %116 = load i32, i32* %9, align 4
  %117 = add nsw i32 %116, -1
  store i32 %117, i32* %9, align 4
  br label %79

118:                                              ; preds = %79
  %119 = load i32, i32* %5, align 4
  %120 = load i32, i32* %3, align 4
  %121 = sub nsw i32 %119, %120
  %122 = add nsw i32 %121, 1
  %123 = load i32, i32* %6, align 4
  %124 = load i32, i32* %4, align 4
  %125 = sub nsw i32 %123, %124
  %126 = add nsw i32 %125, 1
  %127 = mul nsw i32 %122, %126
  store i32 %127, i32* %7, align 4
  %128 = load i32, i32* %7, align 4
  %129 = call i32 (i8*, ...) @printf(i8* getelementptr inbounds ([3 x i8], [3 x i8]* @.str.1, i64 0, i64 0), i32 %128)
  ret i32 0
}

declare dso_local i32 @__isoc99_scanf(i8*, ...) #1

declare dso_local i32 @printf(i8*, ...) #1


!llvm.module.flags = !{!0}
!llvm.ident = !{!1}

!0 = !{i32 1, !"wchar_size", i32 4}
!1 = !{!"clang version 10.0.0-4ubuntu1 "}
